target datalayout = "e-m:e-p270:32:32-p271:32:32-p272:64:64-i64:64-i128:128-f80:128-n8:16:32:64-S128"
target triple = "x86_64-pc-linux-gnu"

%struct.Vec_Wrd_t_ = type { i32, i32, ptr }

@.str.34 = private unnamed_addr constant [3 x i8] c"rb\00", align 1
@.str.35 = private unnamed_addr constant [30 x i8] c"Cannot open input file \22%s\22.\0A\00", align 1
@.str.36 = private unnamed_addr constant [65 x i8] c"This tester does not support functions with more than 8 inputs.\0A\00", align 1
@.str.37 = private unnamed_addr constant [61 x i8] c"This tester does not support nodes with more than 6 inputs.\0A\00", align 1
@.str.38 = private unnamed_addr constant [67 x i8] c"This tester does not support structures with more than 16 inputs.\0A\00", align 1
@.str.39 = private unnamed_addr constant [54 x i8] c"The number of nodes in the structure is not correct.\0A\00", align 1
@.str.40 = private unnamed_addr constant [42 x i8] c"Structure %3d : Verification successful.\0A\00", align 1
@.str.41 = private unnamed_addr constant [38 x i8] c"Structure %3d : Verification FAILED.\0A\00", align 1
@.str.42 = private unnamed_addr constant [17 x i8] c"Implementation: \00", align 1
@.str.43 = private unnamed_addr constant [17 x i8] c"Specification:  \00", align 1

; Function Attrs: nounwind uwtable
define internal ptr @Vec_WrdEntryP(ptr noundef %0, i32 noundef %1) #0 {
  %3 = alloca ptr, align 8
  %4 = alloca i32, align 4
  store ptr %0, ptr %3, align 8
  store i32 %1, ptr %4, align 4
  %5 = load ptr, ptr %3, align 8
  %6 = getelementptr inbounds %struct.Vec_Wrd_t_, ptr %5, i32 0, i32 2
  %7 = load ptr, ptr %6, align 8
  %8 = load i32, ptr %4, align 4
  %9 = sext i32 %8 to i64
  %10 = getelementptr inbounds i64, ptr %7, i64 %9
  ret ptr %10
}

; Function Attrs: nounwind uwtable
define internal void @Vec_WrdFree(ptr noundef %0) #0 {
  %2 = alloca ptr, align 8
  store ptr %0, ptr %2, align 8
  %3 = load ptr, ptr %2, align 8
  %4 = getelementptr inbounds %struct.Vec_Wrd_t_, ptr %3, i32 0, i32 2
  %5 = load ptr, ptr %4, align 8
  %6 = icmp ne ptr %5, null
  br i1 %6, label %7, label %13

7:                                                ; preds = %1
  %8 = load ptr, ptr %2, align 8
  %9 = getelementptr inbounds %struct.Vec_Wrd_t_, ptr %8, i32 0, i32 2
  %10 = load ptr, ptr %9, align 8
  call void @free(ptr noundef %10) #11
  %11 = load ptr, ptr %2, align 8
  %12 = getelementptr inbounds %struct.Vec_Wrd_t_, ptr %11, i32 0, i32 2
  store ptr null, ptr %12, align 8
  br label %14

13:                                               ; preds = %1
  br label %14

14:                                               ; preds = %13, %7
  %15 = load ptr, ptr %2, align 8
  %16 = icmp ne ptr %15, null
  br i1 %16, label %17, label %19

17:                                               ; preds = %14
  %18 = load ptr, ptr %2, align 8
  call void @free(ptr noundef %18) #11
  store ptr null, ptr %2, align 8
  br label %20

19:                                               ; preds = %14
  br label %20

20:                                               ; preds = %19, %17
  ret void
}

; Function Attrs: nounwind uwtable
define internal i32 @Abc_TtEqual(ptr noundef %0, ptr noundef %1, i32 noundef %2) #0 {
  %4 = alloca i32, align 4
  %5 = alloca ptr, align 8
  %6 = alloca ptr, align 8
  %7 = alloca i32, align 4
  %8 = alloca i32, align 4
  store ptr %0, ptr %5, align 8
  store ptr %1, ptr %6, align 8
  store i32 %2, ptr %7, align 4
  store i32 0, ptr %8, align 4
  br label %9

9:                                                ; preds = %27, %3
  %10 = load i32, ptr %8, align 4
  %11 = load i32, ptr %7, align 4
  %12 = icmp slt i32 %10, %11
  br i1 %12, label %13, label %30

13:                                               ; preds = %9
  %14 = load ptr, ptr %5, align 8
  %15 = load i32, ptr %8, align 4
  %16 = sext i32 %15 to i64
  %17 = getelementptr inbounds i64, ptr %14, i64 %16
  %18 = load i64, ptr %17, align 8
  %19 = load ptr, ptr %6, align 8
  %20 = load i32, ptr %8, align 4
  %21 = sext i32 %20 to i64
  %22 = getelementptr inbounds i64, ptr %19, i64 %21
  %23 = load i64, ptr %22, align 8
  %24 = icmp ne i64 %18, %23
  br i1 %24, label %25, label %26

25:                                               ; preds = %13
  store i32 0, ptr %4, align 4
  br label %31

26:                                               ; preds = %13
  br label %27

27:                                               ; preds = %26
  %28 = load i32, ptr %8, align 4
  %29 = add nsw i32 %28, 1
  store i32 %29, ptr %8, align 4
  br label %9, !llvm.loop !75

30:                                               ; preds = %9
  store i32 1, ptr %4, align 4
  br label %31

31:                                               ; preds = %30, %25
  %32 = load i32, ptr %4, align 4
  ret i32 %32
}

; Function Attrs: nounwind uwtable
define internal ptr @Zyx_TestTruth(ptr noundef %0, i32 noundef %1, i32 noundef %2) #0 {
  %4 = alloca ptr, align 8
  %5 = alloca i32, align 4
  %6 = alloca i32, align 4
  store ptr %0, ptr %4, align 8
  store i32 %1, ptr %5, align 4
  store i32 %2, ptr %6, align 4
  %7 = load ptr, ptr %4, align 8
  %8 = load i32, ptr %6, align 4
  %9 = load i32, ptr %5, align 4
  %10 = mul nsw i32 %8, %9
  %11 = call ptr @Vec_WrdEntryP(ptr noundef %7, i32 noundef %10)
  ret ptr %11
}

; Function Attrs: nounwind uwtable
define internal i32 @Abc_TtWordNum(i32 noundef %0) #0 {
  %2 = alloca i32, align 4
  store i32 %0, ptr %2, align 4
  %3 = load i32, ptr %2, align 4
  %4 = icmp sle i32 %3, 6
  br i1 %4, label %5, label %6

5:                                                ; preds = %1
  br label %10

6:                                                ; preds = %1
  %7 = load i32, ptr %2, align 4
  %8 = sub nsw i32 %7, 6
  %9 = shl i32 1, %8
  br label %10

10:                                               ; preds = %6, %5
  %11 = phi i32 [ 1, %5 ], [ %9, %6 ]
  ret i32 %11
}

; Function Attrs: nounwind uwtable
define void @Zyx_TestExact(ptr noundef %0) #0 {
  %2 = alloca ptr, align 8
  %3 = alloca i32, align 4
  %4 = alloca i32, align 4
  %5 = alloca i32, align 4
  %6 = alloca i32, align 4
  %7 = alloca i32, align 4
  %8 = alloca ptr, align 8
  %9 = alloca [4 x i64], align 16
  %10 = alloca ptr, align 8
  %11 = alloca [1000 x i8], align 16
  %12 = alloca ptr, align 8
  store ptr %0, ptr %2, align 8
  store i32 0, ptr %4, align 4
  store i32 -1, ptr %5, align 4
  store i32 -1, ptr %6, align 4
  store i32 -1, ptr %7, align 4
  %13 = load ptr, ptr %2, align 8
  %14 = call noalias ptr @fopen(ptr noundef %13, ptr noundef @.str.34)
  store ptr %14, ptr %12, align 8
  %15 = load ptr, ptr %12, align 8
  %16 = icmp eq ptr %15, null
  br i1 %16, label %17, label %20

17:                                               ; preds = %1
  %18 = load ptr, ptr %2, align 8
  %19 = call i32 (ptr, ...) @printf(ptr noundef @.str.35, ptr noundef %18)
  br label %105

20:                                               ; preds = %1
  %21 = load ptr, ptr %2, align 8
  %22 = getelementptr inbounds [4 x i64], ptr %9, i64 0, i64 0
  %23 = call i32 @Zyx_TestGetTruthTablePars(ptr noundef %21, ptr noundef %22, ptr noundef %5, ptr noundef %6, ptr noundef %7)
  %24 = icmp ne i32 %23, 0
  br i1 %24, label %26, label %25

25:                                               ; preds = %20
  br label %105

26:                                               ; preds = %20
  %27 = load i32, ptr %5, align 4
  %28 = icmp sgt i32 %27, 8
  br i1 %28, label %29, label %31

29:                                               ; preds = %26
  %30 = call i32 (ptr, ...) @printf(ptr noundef @.str.36)
  br label %105

31:                                               ; preds = %26
  %32 = load i32, ptr %6, align 4
  %33 = icmp sgt i32 %32, 6
  br i1 %33, label %34, label %36

34:                                               ; preds = %31
  %35 = call i32 (ptr, ...) @printf(ptr noundef @.str.37)
  br label %105

36:                                               ; preds = %31
  %37 = load i32, ptr %7, align 4
  %38 = icmp sgt i32 %37, 16
  br i1 %38, label %39, label %41

39:                                               ; preds = %36
  %40 = call i32 (ptr, ...) @printf(ptr noundef @.str.38)
  br label %105

41:                                               ; preds = %36
  %42 = load i32, ptr %5, align 4
  %43 = load i32, ptr %7, align 4
  %44 = call ptr @Zyx_TestCreateTruthTables(i32 noundef %42, i32 noundef %43)
  store ptr %44, ptr %10, align 8
  %45 = load i32, ptr %5, align 4
  store i32 %45, ptr %3, align 4
  br label %46

46:                                               ; preds = %98, %41
  %47 = getelementptr inbounds [1000 x i8], ptr %11, i64 0, i64 0
  %48 = load ptr, ptr %12, align 8
  %49 = call ptr @fgets(ptr noundef %47, i32 noundef 1000, ptr noundef %48)
  %50 = icmp ne ptr %49, null
  br i1 %50, label %51, label %101

51:                                               ; preds = %46
  %52 = getelementptr inbounds [1000 x i8], ptr %11, i64 0, i64 0
  %53 = load ptr, ptr %10, align 8
  %54 = load i32, ptr %5, align 4
  %55 = load i32, ptr %6, align 4
  %56 = load i32, ptr %3, align 4
  %57 = call i32 @Zyx_TestReadNode(ptr noundef %52, ptr noundef %53, i32 noundef %54, i32 noundef %55, i32 noundef %56)
  %58 = icmp ne i32 %57, 0
  br i1 %58, label %59, label %60

59:                                               ; preds = %51
  br label %98

60:                                               ; preds = %51
  %61 = load i32, ptr %3, align 4
  %62 = load i32, ptr %5, align 4
  %63 = load i32, ptr %7, align 4
  %64 = add nsw i32 %62, %63
  %65 = icmp ne i32 %61, %64
  br i1 %65, label %66, label %68

66:                                               ; preds = %60
  %67 = call i32 (ptr, ...) @printf(ptr noundef @.str.39)
  br label %101

68:                                               ; preds = %60
  %69 = load i32, ptr %4, align 4
  %70 = add nsw i32 %69, 1
  store i32 %70, ptr %4, align 4
  %71 = load ptr, ptr %10, align 8
  %72 = load i32, ptr %3, align 4
  %73 = sub nsw i32 %72, 1
  %74 = load i32, ptr %5, align 4
  %75 = call i32 @Abc_TtWordNum(i32 noundef %74)
  %76 = call ptr @Zyx_TestTruth(ptr noundef %71, i32 noundef %73, i32 noundef %75)
  store ptr %76, ptr %8, align 8
  %77 = load ptr, ptr %8, align 8
  %78 = getelementptr inbounds [4 x i64], ptr %9, i64 0, i64 0
  %79 = load i32, ptr %5, align 4
  %80 = call i32 @Abc_TtWordNum(i32 noundef %79)
  %81 = call i32 @Abc_TtEqual(ptr noundef %77, ptr noundef %78, i32 noundef %80)
  %82 = icmp ne i32 %81, 0
  br i1 %82, label %83, label %86

83:                                               ; preds = %68
  %84 = load i32, ptr %4, align 4
  %85 = call i32 (ptr, ...) @printf(ptr noundef @.str.40, i32 noundef %84)
  br label %95

86:                                               ; preds = %68
  %87 = load i32, ptr %4, align 4
  %88 = call i32 (ptr, ...) @printf(ptr noundef @.str.41, i32 noundef %87)
  %89 = call i32 (ptr, ...) @printf(ptr noundef @.str.42)
  %90 = load ptr, ptr %8, align 8
  %91 = load i32, ptr %5, align 4
  call void @Dau_DsdPrintFromTruth(ptr noundef %90, i32 noundef %91)
  %92 = call i32 (ptr, ...) @printf(ptr noundef @.str.43)
  %93 = getelementptr inbounds [4 x i64], ptr %9, i64 0, i64 0
  %94 = load i32, ptr %5, align 4
  call void @Dau_DsdPrintFromTruth(ptr noundef %93, i32 noundef %94)
  br label %95

95:                                               ; preds = %86, %83
  %96 = load i32, ptr %5, align 4
  %97 = sub nsw i32 %96, 1
  store i32 %97, ptr %3, align 4
  br label %98

98:                                               ; preds = %95, %59
  %99 = load i32, ptr %3, align 4
  %100 = add nsw i32 %99, 1
  store i32 %100, ptr %3, align 4
  br label %46, !llvm.loop !136

101:                                              ; preds = %66, %46
  %102 = load ptr, ptr %10, align 8
  call void @Vec_WrdFree(ptr noundef %102)
  %103 = load ptr, ptr %12, align 8
  %104 = call i32 @fclose(ptr noundef %103)
  br label %105

105:                                              ; preds = %101, %39, %34, %29, %25, %17
  ret void
}