; Function Attrs: nounwind uwtable
define void @Zyx_TestExact(ptr noundef %0) local_unnamed_addr #2 {
  %2 = alloca i32, align 4
  %3 = alloca i32, align 4
  %4 = alloca i32, align 4
  %5 = alloca [4 x i64], align 16
  %6 = alloca [1000 x i8], align 16
  store i32 -1, ptr %2, align 4
  store i32 -1, ptr %3, align 4
  store i32 -1, ptr %4, align 4
  %7 = tail call noalias ptr @fopen(ptr noundef %0, ptr noundef nonnull @.str.34)
  %8 = icmp eq ptr %7, null
  br i1 %8, label %9, label %11

9:                                                ; preds = %1
  %10 = tail call i32 (ptr, ...) @printf(ptr noundef nonnull dereferenceable(1) @.str.35, ptr noundef %0)
  br label %68

11:                                               ; preds = %1
  %12 = call i32 @Zyx_TestGetTruthTablePars(ptr noundef %0, ptr noundef nonnull %5, ptr noundef nonnull %2, ptr noundef nonnull %3, ptr noundef nonnull %4)
  %.not = icmp eq i32 %12, 0
  br i1 %.not, label %68, label %13

13:                                               ; preds = %11
  %14 = load i32, ptr %2, align 4
  %15 = icmp sgt i32 %14, 8
  br i1 %15, label %16, label %17

16:                                               ; preds = %13
  %puts28 = tail call i32 @puts(ptr nonnull dereferenceable(1) @str.13)
  br label %68

17:                                               ; preds = %13
  %18 = load i32, ptr %3, align 4
  %19 = icmp sgt i32 %18, 6
  br i1 %19, label %20, label %21

20:                                               ; preds = %17
  %puts27 = tail call i32 @puts(ptr nonnull dereferenceable(1) @str.12)
  br label %68

21:                                               ; preds = %17
  %22 = load i32, ptr %4, align 4
  %23 = icmp sgt i32 %22, 16
  br i1 %23, label %24, label %25

24:                                               ; preds = %21
  %puts26 = tail call i32 @puts(ptr nonnull dereferenceable(1) @str.11)
  br label %68

25:                                               ; preds = %21
  %26 = tail call ptr @Zyx_TestCreateTruthTables(i32 noundef %14, i32 noundef %22)
  %27 = call ptr @fgets(ptr noundef nonnull %6, i32 noundef 1000, ptr noundef nonnull %7)
  %.not2233 = icmp eq ptr %27, null
  br i1 %.not2233, label %.loopexit32, label %.lr.ph

.lr.ph:                                           ; preds = %25
  %28 = add nsw i32 %22, %14
  %29 = icmp slt i32 %14, 7
  %30 = add nsw i32 %14, -6
  %31 = shl nuw nsw i32 1, %30
  %32 = select i1 %29, i32 1, i32 %31
  %.fr36 = freeze i32 %32
  %33 = getelementptr i8, ptr %26, i64 8
  %34 = icmp sgt i32 %.fr36, 0
  %wide.trip.count.i = zext nneg i32 %.fr36 to i64
  %35 = add nsw i32 %14, -1
  br i1 %34, label %.lr.ph.split.us.preheader, label %.lr.ph.split

.lr.ph.split.us.preheader:                        ; preds = %.lr.ph
  %36 = select i1 %29, i32 0, i32 %30
  %37 = add nsw i32 %28, -1
  %38 = shl i32 %37, %36
  %39 = sext i32 %38 to i64
  br label %.lr.ph.split.us

.lr.ph.split.us:                                  ; preds = %.lr.ph.split.us.preheader, %52
  %.035.us = phi i32 [ %53, %52 ], [ %14, %.lr.ph.split.us.preheader ]
  %.01734.us = phi i32 [ %.118.us, %52 ], [ 0, %.lr.ph.split.us.preheader ]
  %40 = call i32 @Zyx_TestReadNode(ptr noundef nonnull %6, ptr noundef %26, i32 noundef %14, i32 noundef %18, i32 noundef %.035.us)
  %.not23.us = icmp eq i32 %40, 0
  br i1 %.not23.us, label %41, label %52

41:                                               ; preds = %.lr.ph.split.us
  %.not24.us = icmp eq i32 %.035.us, %28
  br i1 %.not24.us, label %.lr.ph.preheader.i.us, label %.split.us

.lr.ph.preheader.i.us:                            ; preds = %41
  %42 = add nsw i32 %.01734.us, 1
  %.val.us = load ptr, ptr %33, align 8
  %43 = getelementptr inbounds i64, ptr %.val.us, i64 %39
  br label %.lr.ph.i.us

.lr.ph.i.us:                                      ; preds = %51, %.lr.ph.preheader.i.us
  %indvars.iv.i.us = phi i64 [ 0, %.lr.ph.preheader.i.us ], [ %indvars.iv.next.i.us, %51 ]
  %44 = getelementptr inbounds nuw i64, ptr %43, i64 %indvars.iv.i.us
  %45 = load i64, ptr %44, align 8
  %46 = getelementptr inbounds nuw i64, ptr %5, i64 %indvars.iv.i.us
  %47 = load i64, ptr %46, align 8
  %.not.i.us = icmp eq i64 %45, %47
  br i1 %.not.i.us, label %51, label %Abc_TtEqual.exit.us

Abc_TtEqual.exit.us:                              ; preds = %.lr.ph.i.us
  %48 = call i32 (ptr, ...) @printf(ptr noundef nonnull dereferenceable(1) @.str.41, i32 noundef %42)
  %49 = call i32 (ptr, ...) @printf(ptr noundef nonnull dereferenceable(1) @.str.42)
  call void @Dau_DsdPrintFromTruth(ptr noundef nonnull %43, i32 noundef %14) #22
  %50 = call i32 (ptr, ...) @printf(ptr noundef nonnull dereferenceable(1) @.str.43)
  call void @Dau_DsdPrintFromTruth(ptr noundef nonnull %5, i32 noundef %14) #22
  br label %52

51:                                               ; preds = %.lr.ph.i.us
  %indvars.iv.next.i.us = add nuw nsw i64 %indvars.iv.i.us, 1
  %exitcond.not.i.us = icmp eq i64 %indvars.iv.next.i.us, %wide.trip.count.i
  br i1 %exitcond.not.i.us, label %.loopexit.us, label %.lr.ph.i.us, !llvm.loop !73

52:                                               ; preds = %Abc_TtEqual.exit.us, %.loopexit.us, %.lr.ph.split.us
  %.118.us = phi i32 [ %.01734.us, %.lr.ph.split.us ], [ %42, %.loopexit.us ], [ %42, %Abc_TtEqual.exit.us ]
  %.1.us = phi i32 [ %.035.us, %.lr.ph.split.us ], [ %35, %.loopexit.us ], [ %35, %Abc_TtEqual.exit.us ]
  %53 = add nsw i32 %.1.us, 1
  %54 = call ptr @fgets(ptr noundef nonnull %6, i32 noundef 1000, ptr noundef nonnull %7)
  %.not22.us = icmp eq ptr %54, null
  br i1 %.not22.us, label %.loopexit32, label %.lr.ph.split.us, !llvm.loop !136

.loopexit.us:                                     ; preds = %51
  %55 = call i32 (ptr, ...) @printf(ptr noundef nonnull dereferenceable(1) @.str.40, i32 noundef %42)
  br label %52

.lr.ph.split:                                     ; preds = %.lr.ph, %61
  %.035 = phi i32 [ %62, %61 ], [ %14, %.lr.ph ]
  %.01734 = phi i32 [ %.118, %61 ], [ 0, %.lr.ph ]
  %56 = call i32 @Zyx_TestReadNode(ptr noundef nonnull %6, ptr noundef %26, i32 noundef %14, i32 noundef %18, i32 noundef %.035)
  %.not23 = icmp eq i32 %56, 0
  br i1 %.not23, label %57, label %61

57:                                               ; preds = %.lr.ph.split
  %.not24 = icmp eq i32 %.035, %28
  br i1 %.not24, label %58, label %.split.us

.split.us:                                        ; preds = %57, %41
  %puts = call i32 @puts(ptr nonnull dereferenceable(1) @str.10)
  br label %.loopexit32

58:                                               ; preds = %57
  %59 = add nsw i32 %.01734, 1
  %60 = call i32 (ptr, ...) @printf(ptr noundef nonnull dereferenceable(1) @.str.40, i32 noundef %59)
  br label %61

61:                                               ; preds = %.lr.ph.split, %58
  %.118 = phi i32 [ %.01734, %.lr.ph.split ], [ %59, %58 ]
  %.1 = phi i32 [ %.035, %.lr.ph.split ], [ %35, %58 ]
  %62 = add nsw i32 %.1, 1
  %63 = call ptr @fgets(ptr noundef nonnull %6, i32 noundef 1000, ptr noundef nonnull %7)
  %.not22 = icmp eq ptr %63, null
  br i1 %.not22, label %.loopexit32, label %.lr.ph.split, !llvm.loop !136

.loopexit32:                                      ; preds = %61, %52, %25, %.split.us
  %64 = getelementptr inbounds nuw i8, ptr %26, i64 8
  %65 = load ptr, ptr %64, align 8
  %.not.i29 = icmp eq ptr %65, null
  br i1 %.not.i29, label %Vec_WrdFree.exit, label %66

66:                                               ; preds = %.loopexit32
  call void @free(ptr noundef nonnull %65) #22
  br label %Vec_WrdFree.exit

Vec_WrdFree.exit:                                 ; preds = %.loopexit32, %66
  call void @free(ptr noundef nonnull %26) #22
  %67 = call i32 @fclose(ptr noundef nonnull %7)
  br label %68

68:                                               ; preds = %11, %Vec_WrdFree.exit, %24, %20, %16, %9
  ret void
}